target datalayout = "e-m:e-p270:32:32-p271:32:32-p272:64:64-i64:64-i128:128-f80:128-n8:16:32:64-S128"
target triple = "x86_64-unknown-linux-gnu"

%struct.Flash = type { %struct.SSIPeripheral, ptr, ptr, i32, i32, i8, [16 x i8], i32, i32, i8, i8, i8, i32, i32, i32, i32, i8, i8, i8, i8, i8, i8, i8, i8, i8, i8, i8, i8, i8, i8, i8, i8, i8, i8, i8, i8, i8, i64, ptr }
%struct.SSIPeripheral = type { %struct.DeviceState, ptr, i8, i8 }
%struct.DeviceState = type { %struct.Object, ptr, ptr, i8, i8, i64, ptr, i32, i8, ptr, %struct.NamedGPIOListHead, %struct.NamedClockListHead, %struct.BusStateHead, i32, i32, i32, %struct.ResettableState, ptr, %struct.MemReentrancyGuard }
%struct.Object = type { ptr, ptr, ptr, i32, ptr }
%struct.NamedGPIOListHead = type { ptr }
%struct.NamedClockListHead = type { ptr }
%struct.BusStateHead = type { ptr }
%struct.ResettableState = type { i32, i8, i8 }
%struct.MemReentrancyGuard = type { i8 }

; Function Attrs: nounwind sspstrong uwtable
define internal zeroext i1 @m25p80_block_protect_needed(ptr noundef %opaque) #0 {
entry:
  %opaque.addr = alloca ptr, align 8
  %s = alloca ptr, align 8
  store ptr %opaque, ptr %opaque.addr, align 8
  %0 = load ptr, ptr %opaque.addr, align 8
  store ptr %0, ptr %s, align 8
  %1 = load ptr, ptr %s, align 8
  %block_protect0 = getelementptr inbounds %struct.Flash, ptr %1, i32 0, i32 30
  %2 = load i8, ptr %block_protect0, align 2
  %tobool = trunc i8 %2 to i1
  br i1 %tobool, label %lor.end, label %lor.lhs.false

lor.lhs.false:                                    ; preds = %entry
  %3 = load ptr, ptr %s, align 8
  %block_protect1 = getelementptr inbounds %struct.Flash, ptr %3, i32 0, i32 31
  %4 = load i8, ptr %block_protect1, align 1
  %tobool1 = trunc i8 %4 to i1
  br i1 %tobool1, label %lor.end, label %lor.lhs.false2

lor.lhs.false2:                                   ; preds = %lor.lhs.false
  %5 = load ptr, ptr %s, align 8
  %block_protect2 = getelementptr inbounds %struct.Flash, ptr %5, i32 0, i32 32
  %6 = load i8, ptr %block_protect2, align 8
  %tobool3 = trunc i8 %6 to i1
  br i1 %tobool3, label %lor.end, label %lor.lhs.false4

lor.lhs.false4:                                   ; preds = %lor.lhs.false2
  %7 = load ptr, ptr %s, align 8
  %block_protect3 = getelementptr inbounds %struct.Flash, ptr %7, i32 0, i32 33
  %8 = load i8, ptr %block_protect3, align 1
  %tobool5 = trunc i8 %8 to i1
  br i1 %tobool5, label %lor.end, label %lor.rhs

lor.rhs:                                          ; preds = %lor.lhs.false4
  %9 = load ptr, ptr %s, align 8
  %top_bottom_bit = getelementptr inbounds %struct.Flash, ptr %9, i32 0, i32 34
  %10 = load i8, ptr %top_bottom_bit, align 2
  %tobool6 = trunc i8 %10 to i1
  br label %lor.end

lor.end:                                          ; preds = %lor.rhs, %lor.lhs.false4, %lor.lhs.false2, %lor.lhs.false, %entry
  %11 = phi i1 [ true, %lor.lhs.false4 ], [ true, %lor.lhs.false2 ], [ true, %lor.lhs.false ], [ true, %entry ], [ %tobool6, %lor.rhs ]
  ret i1 %11
}