; Function Attrs: mustprogress nofree norecurse nosync nounwind sspstrong willreturn memory(argmem: read) uwtable
define internal zeroext i1 @m25p80_block_protect_needed(ptr noundef readonly captures(none) %opaque) #11 {
entry:
  %block_protect0 = getelementptr inbounds nuw i8, ptr %opaque, i64 262
  %0 = load i8, ptr %block_protect0, align 2
  %tobool = trunc i8 %0 to i1
  br i1 %tobool, label %lor.end, label %lor.lhs.false

lor.lhs.false:                                    ; preds = %entry
  %block_protect1 = getelementptr inbounds nuw i8, ptr %opaque, i64 263
  %1 = load i8, ptr %block_protect1, align 1
  %tobool1 = trunc i8 %1 to i1
  br i1 %tobool1, label %lor.end, label %lor.lhs.false2

lor.lhs.false2:                                   ; preds = %lor.lhs.false
  %block_protect2 = getelementptr inbounds nuw i8, ptr %opaque, i64 264
  %2 = load i8, ptr %block_protect2, align 8
  %tobool3 = trunc i8 %2 to i1
  br i1 %tobool3, label %lor.end, label %lor.lhs.false4

lor.lhs.false4:                                   ; preds = %lor.lhs.false2
  %block_protect3 = getelementptr inbounds nuw i8, ptr %opaque, i64 265
  %3 = load i8, ptr %block_protect3, align 1
  %tobool5 = trunc i8 %3 to i1
  br i1 %tobool5, label %lor.end, label %lor.rhs

lor.rhs:                                          ; preds = %lor.lhs.false4
  %top_bottom_bit = getelementptr inbounds nuw i8, ptr %opaque, i64 266
  %4 = load i8, ptr %top_bottom_bit, align 2
  %tobool6 = trunc i8 %4 to i1
  br label %lor.end

lor.end:                                          ; preds = %lor.rhs, %lor.lhs.false4, %lor.lhs.false2, %lor.lhs.false, %entry
  %5 = phi i1 [ true, %lor.lhs.false4 ], [ true, %lor.lhs.false2 ], [ true, %lor.lhs.false ], [ true, %entry ], [ %tobool6, %lor.rhs ]
  ret i1 %5
}